; Function Attrs: null_pointer_is_valid sspstrong uwtable
define internal noundef zeroext i16 @be_fe_dual_transfer_mode_info(ptr noundef %0, ptr noundef %1, ptr readnone captures(none) %2, i32 noundef %3, i32 %4, ptr readnone captures(none) %5, i32 %6) #1 {
  %8 = load i32, ptr @hf_fe_dtm_info_dtm_ind, align 4
  %9 = tail call ptr @proto_tree_add_item(ptr noundef %1, i32 noundef %8, ptr noundef %0, i32 noundef %3, i32 noundef 1, i32 noundef 0)
  %10 = load i32, ptr @hf_fe_dtm_info_sto_ind, align 4
  %11 = tail call ptr @proto_tree_add_item(ptr noundef %1, i32 noundef %10, ptr noundef %0, i32 noundef %3, i32 noundef 1, i32 noundef 0)
  %12 = load i32, ptr @hf_fe_dtm_info_egprs_ind, align 4
  %13 = tail call ptr @proto_tree_add_item(ptr noundef %1, i32 noundef %12, ptr noundef %0, i32 noundef %3, i32 noundef 1, i32 noundef 0)
  %14 = load i32, ptr @hf_fe_dtm_info_spare_bits, align 4
  %15 = tail call ptr @proto_tree_add_item(ptr noundef %1, i32 noundef %14, ptr noundef %0, i32 noundef %3, i32 noundef 1, i32 noundef 0)
  ret i16 1
}